; Function Attrs: mustprogress nounwind uwtable
define hidden void @_ZN14ZRelocateQueue20desynchronize_threadEv(ptr nocapture noundef nonnull align 8 dereferenceable(120) %0) local_unnamed_addr #1 align 2 {
  %2 = getelementptr inbounds i8, ptr %0, i64 108
  %3 = load i32, ptr %2, align 4
  %4 = add i32 %3, -1
  store i32 %4, ptr %2, align 4
  %5 = load volatile ptr, ptr getelementptr inbounds (i8, ptr @_ZN16LogTagSetMappingILN6LogTag4typeE49ELS1_129ELS1_0ELS1_0ELS1_0ELS1_0EE7_tagsetE, i64 56), align 8
  %.not = icmp eq ptr %5, null
  br i1 %.not, label %7, label %6

6:                                                ; preds = %1
  tail call void (ptr, ...) @_ZN7LogImplILN6LogTag4typeE49ELS1_129ELS1_0ELS1_0ELS1_0ELS1_0EE5writeILN8LogLevel4typeE2EEEvPKcz(ptr noundef nonnull @.str.11, i32 noundef %4)
  br label %7

7:                                                ; preds = %1, %6
  ret void
}